target datalayout = "e-m:e-p270:32:32-p271:32:32-p272:64:64-i64:64-i128:128-f80:128-n8:16:32:64-S128"
target triple = "x86_64-pc-linux-gnu"

%"class.ZXing::PerspectiveTransform" = type { double, double, double, double, double, double, double, double, double }

; Function Attrs: mustprogress nounwind uwtable
define linkonce_odr void @_ZN5ZXing20PerspectiveTransformC2Eddddddddd(ptr noundef nonnull align 8 dereferenceable(72) %0, double noundef %1, double noundef %2, double noundef %3, double noundef %4, double noundef %5, double noundef %6, double noundef %7, double noundef %8, double noundef %9) unnamed_addr #2 comdat align 2 {
  %11 = alloca ptr, align 8
  %12 = alloca double, align 8
  %13 = alloca double, align 8
  %14 = alloca double, align 8
  %15 = alloca double, align 8
  %16 = alloca double, align 8
  %17 = alloca double, align 8
  %18 = alloca double, align 8
  %19 = alloca double, align 8
  %20 = alloca double, align 8
  store ptr %0, ptr %11, align 8, !tbaa !3
  store double %1, ptr %12, align 8, !tbaa !19
  store double %2, ptr %13, align 8, !tbaa !19
  store double %3, ptr %14, align 8, !tbaa !19
  store double %4, ptr %15, align 8, !tbaa !19
  store double %5, ptr %16, align 8, !tbaa !19
  store double %6, ptr %17, align 8, !tbaa !19
  store double %7, ptr %18, align 8, !tbaa !19
  store double %8, ptr %19, align 8, !tbaa !19
  store double %9, ptr %20, align 8, !tbaa !19
  %21 = load ptr, ptr %11, align 8
  %22 = getelementptr inbounds nuw %"class.ZXing::PerspectiveTransform", ptr %21, i32 0, i32 0
  %23 = load double, ptr %12, align 8, !tbaa !19
  store double %23, ptr %22, align 8, !tbaa !18
  %24 = getelementptr inbounds nuw %"class.ZXing::PerspectiveTransform", ptr %21, i32 0, i32 1
  %25 = load double, ptr %15, align 8, !tbaa !19
  store double %25, ptr %24, align 8, !tbaa !17
  %26 = getelementptr inbounds nuw %"class.ZXing::PerspectiveTransform", ptr %21, i32 0, i32 2
  %27 = load double, ptr %18, align 8, !tbaa !19
  store double %27, ptr %26, align 8, !tbaa !16
  %28 = getelementptr inbounds nuw %"class.ZXing::PerspectiveTransform", ptr %21, i32 0, i32 3
  %29 = load double, ptr %13, align 8, !tbaa !19
  store double %29, ptr %28, align 8, !tbaa !15
  %30 = getelementptr inbounds nuw %"class.ZXing::PerspectiveTransform", ptr %21, i32 0, i32 4
  %31 = load double, ptr %16, align 8, !tbaa !19
  store double %31, ptr %30, align 8, !tbaa !8
  %32 = getelementptr inbounds nuw %"class.ZXing::PerspectiveTransform", ptr %21, i32 0, i32 5
  %33 = load double, ptr %19, align 8, !tbaa !19
  store double %33, ptr %32, align 8, !tbaa !12
  %34 = getelementptr inbounds nuw %"class.ZXing::PerspectiveTransform", ptr %21, i32 0, i32 6
  %35 = load double, ptr %14, align 8, !tbaa !19
  store double %35, ptr %34, align 8, !tbaa !14
  %36 = getelementptr inbounds nuw %"class.ZXing::PerspectiveTransform", ptr %21, i32 0, i32 7
  %37 = load double, ptr %17, align 8, !tbaa !19
  store double %37, ptr %36, align 8, !tbaa !13
  %38 = getelementptr inbounds nuw %"class.ZXing::PerspectiveTransform", ptr %21, i32 0, i32 8
  %39 = load double, ptr %20, align 8, !tbaa !19
  store double %39, ptr %38, align 8, !tbaa !11
  ret void
}

; Function Attrs: mustprogress uwtable
define void @_ZNK5ZXing20PerspectiveTransform5timesERKS0_(ptr dead_on_unwind noalias writable sret(%"class.ZXing::PerspectiveTransform") align 8 %0, ptr noundef nonnull align 8 dereferenceable(72) %1, ptr noundef nonnull align 8 dereferenceable(72) %2) #0 align 2 {
  %4 = alloca ptr, align 8
  %5 = alloca ptr, align 8
  store ptr %1, ptr %4, align 8, !tbaa !3
  store ptr %2, ptr %5, align 8, !tbaa !3
  %6 = load ptr, ptr %4, align 8
  %7 = getelementptr inbounds nuw %"class.ZXing::PerspectiveTransform", ptr %6, i32 0, i32 0
  %8 = load double, ptr %7, align 8, !tbaa !18
  %9 = load ptr, ptr %5, align 8, !tbaa !3
  %10 = getelementptr inbounds nuw %"class.ZXing::PerspectiveTransform", ptr %9, i32 0, i32 0
  %11 = load double, ptr %10, align 8, !tbaa !18
  %12 = getelementptr inbounds nuw %"class.ZXing::PerspectiveTransform", ptr %6, i32 0, i32 3
  %13 = load double, ptr %12, align 8, !tbaa !15
  %14 = load ptr, ptr %5, align 8, !tbaa !3
  %15 = getelementptr inbounds nuw %"class.ZXing::PerspectiveTransform", ptr %14, i32 0, i32 1
  %16 = load double, ptr %15, align 8, !tbaa !17
  %17 = fmul double %13, %16
  %18 = call double @llvm.fmuladd.f64(double %8, double %11, double %17)
  %19 = getelementptr inbounds nuw %"class.ZXing::PerspectiveTransform", ptr %6, i32 0, i32 6
  %20 = load double, ptr %19, align 8, !tbaa !14
  %21 = load ptr, ptr %5, align 8, !tbaa !3
  %22 = getelementptr inbounds nuw %"class.ZXing::PerspectiveTransform", ptr %21, i32 0, i32 2
  %23 = load double, ptr %22, align 8, !tbaa !16
  %24 = call double @llvm.fmuladd.f64(double %20, double %23, double %18)
  %25 = getelementptr inbounds nuw %"class.ZXing::PerspectiveTransform", ptr %6, i32 0, i32 0
  %26 = load double, ptr %25, align 8, !tbaa !18
  %27 = load ptr, ptr %5, align 8, !tbaa !3
  %28 = getelementptr inbounds nuw %"class.ZXing::PerspectiveTransform", ptr %27, i32 0, i32 3
  %29 = load double, ptr %28, align 8, !tbaa !15
  %30 = getelementptr inbounds nuw %"class.ZXing::PerspectiveTransform", ptr %6, i32 0, i32 3
  %31 = load double, ptr %30, align 8, !tbaa !15
  %32 = load ptr, ptr %5, align 8, !tbaa !3
  %33 = getelementptr inbounds nuw %"class.ZXing::PerspectiveTransform", ptr %32, i32 0, i32 4
  %34 = load double, ptr %33, align 8, !tbaa !8
  %35 = fmul double %31, %34
  %36 = call double @llvm.fmuladd.f64(double %26, double %29, double %35)
  %37 = getelementptr inbounds nuw %"class.ZXing::PerspectiveTransform", ptr %6, i32 0, i32 6
  %38 = load double, ptr %37, align 8, !tbaa !14
  %39 = load ptr, ptr %5, align 8, !tbaa !3
  %40 = getelementptr inbounds nuw %"class.ZXing::PerspectiveTransform", ptr %39, i32 0, i32 5
  %41 = load double, ptr %40, align 8, !tbaa !12
  %42 = call double @llvm.fmuladd.f64(double %38, double %41, double %36)
  %43 = getelementptr inbounds nuw %"class.ZXing::PerspectiveTransform", ptr %6, i32 0, i32 0
  %44 = load double, ptr %43, align 8, !tbaa !18
  %45 = load ptr, ptr %5, align 8, !tbaa !3
  %46 = getelementptr inbounds nuw %"class.ZXing::PerspectiveTransform", ptr %45, i32 0, i32 6
  %47 = load double, ptr %46, align 8, !tbaa !14
  %48 = getelementptr inbounds nuw %"class.ZXing::PerspectiveTransform", ptr %6, i32 0, i32 3
  %49 = load double, ptr %48, align 8, !tbaa !15
  %50 = load ptr, ptr %5, align 8, !tbaa !3
  %51 = getelementptr inbounds nuw %"class.ZXing::PerspectiveTransform", ptr %50, i32 0, i32 7
  %52 = load double, ptr %51, align 8, !tbaa !13
  %53 = fmul double %49, %52
  %54 = call double @llvm.fmuladd.f64(double %44, double %47, double %53)
  %55 = getelementptr inbounds nuw %"class.ZXing::PerspectiveTransform", ptr %6, i32 0, i32 6
  %56 = load double, ptr %55, align 8, !tbaa !14
  %57 = load ptr, ptr %5, align 8, !tbaa !3
  %58 = getelementptr inbounds nuw %"class.ZXing::PerspectiveTransform", ptr %57, i32 0, i32 8
  %59 = load double, ptr %58, align 8, !tbaa !11
  %60 = call double @llvm.fmuladd.f64(double %56, double %59, double %54)
  %61 = getelementptr inbounds nuw %"class.ZXing::PerspectiveTransform", ptr %6, i32 0, i32 1
  %62 = load double, ptr %61, align 8, !tbaa !17
  %63 = load ptr, ptr %5, align 8, !tbaa !3
  %64 = getelementptr inbounds nuw %"class.ZXing::PerspectiveTransform", ptr %63, i32 0, i32 0
  %65 = load double, ptr %64, align 8, !tbaa !18
  %66 = getelementptr inbounds nuw %"class.ZXing::PerspectiveTransform", ptr %6, i32 0, i32 4
  %67 = load double, ptr %66, align 8, !tbaa !8
  %68 = load ptr, ptr %5, align 8, !tbaa !3
  %69 = getelementptr inbounds nuw %"class.ZXing::PerspectiveTransform", ptr %68, i32 0, i32 1
  %70 = load double, ptr %69, align 8, !tbaa !17
  %71 = fmul double %67, %70
  %72 = call double @llvm.fmuladd.f64(double %62, double %65, double %71)
  %73 = getelementptr inbounds nuw %"class.ZXing::PerspectiveTransform", ptr %6, i32 0, i32 7
  %74 = load double, ptr %73, align 8, !tbaa !13
  %75 = load ptr, ptr %5, align 8, !tbaa !3
  %76 = getelementptr inbounds nuw %"class.ZXing::PerspectiveTransform", ptr %75, i32 0, i32 2
  %77 = load double, ptr %76, align 8, !tbaa !16
  %78 = call double @llvm.fmuladd.f64(double %74, double %77, double %72)
  %79 = getelementptr inbounds nuw %"class.ZXing::PerspectiveTransform", ptr %6, i32 0, i32 1
  %80 = load double, ptr %79, align 8, !tbaa !17
  %81 = load ptr, ptr %5, align 8, !tbaa !3
  %82 = getelementptr inbounds nuw %"class.ZXing::PerspectiveTransform", ptr %81, i32 0, i32 3
  %83 = load double, ptr %82, align 8, !tbaa !15
  %84 = getelementptr inbounds nuw %"class.ZXing::PerspectiveTransform", ptr %6, i32 0, i32 4
  %85 = load double, ptr %84, align 8, !tbaa !8
  %86 = load ptr, ptr %5, align 8, !tbaa !3
  %87 = getelementptr inbounds nuw %"class.ZXing::PerspectiveTransform", ptr %86, i32 0, i32 4
  %88 = load double, ptr %87, align 8, !tbaa !8
  %89 = fmul double %85, %88
  %90 = call double @llvm.fmuladd.f64(double %80, double %83, double %89)
  %91 = getelementptr inbounds nuw %"class.ZXing::PerspectiveTransform", ptr %6, i32 0, i32 7
  %92 = load double, ptr %91, align 8, !tbaa !13
  %93 = load ptr, ptr %5, align 8, !tbaa !3
  %94 = getelementptr inbounds nuw %"class.ZXing::PerspectiveTransform", ptr %93, i32 0, i32 5
  %95 = load double, ptr %94, align 8, !tbaa !12
  %96 = call double @llvm.fmuladd.f64(double %92, double %95, double %90)
  %97 = getelementptr inbounds nuw %"class.ZXing::PerspectiveTransform", ptr %6, i32 0, i32 1
  %98 = load double, ptr %97, align 8, !tbaa !17
  %99 = load ptr, ptr %5, align 8, !tbaa !3
  %100 = getelementptr inbounds nuw %"class.ZXing::PerspectiveTransform", ptr %99, i32 0, i32 6
  %101 = load double, ptr %100, align 8, !tbaa !14
  %102 = getelementptr inbounds nuw %"class.ZXing::PerspectiveTransform", ptr %6, i32 0, i32 4
  %103 = load double, ptr %102, align 8, !tbaa !8
  %104 = load ptr, ptr %5, align 8, !tbaa !3
  %105 = getelementptr inbounds nuw %"class.ZXing::PerspectiveTransform", ptr %104, i32 0, i32 7
  %106 = load double, ptr %105, align 8, !tbaa !13
  %107 = fmul double %103, %106
  %108 = call double @llvm.fmuladd.f64(double %98, double %101, double %107)
  %109 = getelementptr inbounds nuw %"class.ZXing::PerspectiveTransform", ptr %6, i32 0, i32 7
  %110 = load double, ptr %109, align 8, !tbaa !13
  %111 = load ptr, ptr %5, align 8, !tbaa !3
  %112 = getelementptr inbounds nuw %"class.ZXing::PerspectiveTransform", ptr %111, i32 0, i32 8
  %113 = load double, ptr %112, align 8, !tbaa !11
  %114 = call double @llvm.fmuladd.f64(double %110, double %113, double %108)
  %115 = getelementptr inbounds nuw %"class.ZXing::PerspectiveTransform", ptr %6, i32 0, i32 2
  %116 = load double, ptr %115, align 8, !tbaa !16
  %117 = load ptr, ptr %5, align 8, !tbaa !3
  %118 = getelementptr inbounds nuw %"class.ZXing::PerspectiveTransform", ptr %117, i32 0, i32 0
  %119 = load double, ptr %118, align 8, !tbaa !18
  %120 = getelementptr inbounds nuw %"class.ZXing::PerspectiveTransform", ptr %6, i32 0, i32 5
  %121 = load double, ptr %120, align 8, !tbaa !12
  %122 = load ptr, ptr %5, align 8, !tbaa !3
  %123 = getelementptr inbounds nuw %"class.ZXing::PerspectiveTransform", ptr %122, i32 0, i32 1
  %124 = load double, ptr %123, align 8, !tbaa !17
  %125 = fmul double %121, %124
  %126 = call double @llvm.fmuladd.f64(double %116, double %119, double %125)
  %127 = getelementptr inbounds nuw %"class.ZXing::PerspectiveTransform", ptr %6, i32 0, i32 8
  %128 = load double, ptr %127, align 8, !tbaa !11
  %129 = load ptr, ptr %5, align 8, !tbaa !3
  %130 = getelementptr inbounds nuw %"class.ZXing::PerspectiveTransform", ptr %129, i32 0, i32 2
  %131 = load double, ptr %130, align 8, !tbaa !16
  %132 = call double @llvm.fmuladd.f64(double %128, double %131, double %126)
  %133 = getelementptr inbounds nuw %"class.ZXing::PerspectiveTransform", ptr %6, i32 0, i32 2
  %134 = load double, ptr %133, align 8, !tbaa !16
  %135 = load ptr, ptr %5, align 8, !tbaa !3
  %136 = getelementptr inbounds nuw %"class.ZXing::PerspectiveTransform", ptr %135, i32 0, i32 3
  %137 = load double, ptr %136, align 8, !tbaa !15
  %138 = getelementptr inbounds nuw %"class.ZXing::PerspectiveTransform", ptr %6, i32 0, i32 5
  %139 = load double, ptr %138, align 8, !tbaa !12
  %140 = load ptr, ptr %5, align 8, !tbaa !3
  %141 = getelementptr inbounds nuw %"class.ZXing::PerspectiveTransform", ptr %140, i32 0, i32 4
  %142 = load double, ptr %141, align 8, !tbaa !8
  %143 = fmul double %139, %142
  %144 = call double @llvm.fmuladd.f64(double %134, double %137, double %143)
  %145 = getelementptr inbounds nuw %"class.ZXing::PerspectiveTransform", ptr %6, i32 0, i32 8
  %146 = load double, ptr %145, align 8, !tbaa !11
  %147 = load ptr, ptr %5, align 8, !tbaa !3
  %148 = getelementptr inbounds nuw %"class.ZXing::PerspectiveTransform", ptr %147, i32 0, i32 5
  %149 = load double, ptr %148, align 8, !tbaa !12
  %150 = call double @llvm.fmuladd.f64(double %146, double %149, double %144)
  %151 = getelementptr inbounds nuw %"class.ZXing::PerspectiveTransform", ptr %6, i32 0, i32 2
  %152 = load double, ptr %151, align 8, !tbaa !16
  %153 = load ptr, ptr %5, align 8, !tbaa !3
  %154 = getelementptr inbounds nuw %"class.ZXing::PerspectiveTransform", ptr %153, i32 0, i32 6
  %155 = load double, ptr %154, align 8, !tbaa !14
  %156 = getelementptr inbounds nuw %"class.ZXing::PerspectiveTransform", ptr %6, i32 0, i32 5
  %157 = load double, ptr %156, align 8, !tbaa !12
  %158 = load ptr, ptr %5, align 8, !tbaa !3
  %159 = getelementptr inbounds nuw %"class.ZXing::PerspectiveTransform", ptr %158, i32 0, i32 7
  %160 = load double, ptr %159, align 8, !tbaa !13
  %161 = fmul double %157, %160
  %162 = call double @llvm.fmuladd.f64(double %152, double %155, double %161)
  %163 = getelementptr inbounds nuw %"class.ZXing::PerspectiveTransform", ptr %6, i32 0, i32 8
  %164 = load double, ptr %163, align 8, !tbaa !11
  %165 = load ptr, ptr %5, align 8, !tbaa !3
  %166 = getelementptr inbounds nuw %"class.ZXing::PerspectiveTransform", ptr %165, i32 0, i32 8
  %167 = load double, ptr %166, align 8, !tbaa !11
  %168 = call double @llvm.fmuladd.f64(double %164, double %167, double %162)
  call void @_ZN5ZXing20PerspectiveTransformC2Eddddddddd(ptr noundef nonnull align 8 dereferenceable(72) %0, double noundef %24, double noundef %42, double noundef %60, double noundef %78, double noundef %96, double noundef %114, double noundef %132, double noundef %150, double noundef %168)
  ret void
}