; Function Attrs: mustprogress nofree norecurse nosync nounwind willreturn memory(argmem: readwrite) uwtable
define void @_ZNK5ZXing20PerspectiveTransform5timesERKS0_(ptr dead_on_unwind noalias writable writeonly sret(%"class.ZXing::PerspectiveTransform") align 8 captures(none) initializes((0, 72)) %0, ptr noundef nonnull readonly align 8 captures(none) dereferenceable(72) %1, ptr noundef nonnull readonly align 8 captures(none) dereferenceable(72) %2) local_unnamed_addr #0 align 2 {
  %4 = load double, ptr %1, align 8, !tbaa !15
  %5 = load double, ptr %2, align 8, !tbaa !15
  %6 = getelementptr inbounds nuw i8, ptr %1, i64 24
  %7 = load double, ptr %6, align 8, !tbaa !12
  %8 = getelementptr inbounds nuw i8, ptr %2, i64 8
  %9 = load double, ptr %8, align 8, !tbaa !14
  %10 = fmul double %7, %9
  %11 = tail call double @llvm.fmuladd.f64(double %4, double %5, double %10)
  %12 = getelementptr inbounds nuw i8, ptr %1, i64 48
  %13 = load double, ptr %12, align 8, !tbaa !11
  %14 = getelementptr inbounds nuw i8, ptr %2, i64 16
  %15 = load double, ptr %14, align 8, !tbaa !13
  %16 = tail call double @llvm.fmuladd.f64(double %13, double %15, double %11)
  %17 = getelementptr inbounds nuw i8, ptr %2, i64 24
  %18 = load double, ptr %17, align 8, !tbaa !12
  %19 = getelementptr inbounds nuw i8, ptr %2, i64 32
  %20 = load double, ptr %19, align 8, !tbaa !3
  %21 = fmul double %7, %20
  %22 = tail call double @llvm.fmuladd.f64(double %4, double %18, double %21)
  %23 = getelementptr inbounds nuw i8, ptr %2, i64 40
  %24 = load double, ptr %23, align 8, !tbaa !9
  %25 = tail call double @llvm.fmuladd.f64(double %13, double %24, double %22)
  %26 = getelementptr inbounds nuw i8, ptr %2, i64 48
  %27 = load double, ptr %26, align 8, !tbaa !11
  %28 = getelementptr inbounds nuw i8, ptr %2, i64 56
  %29 = load double, ptr %28, align 8, !tbaa !10
  %30 = fmul double %7, %29
  %31 = tail call double @llvm.fmuladd.f64(double %4, double %27, double %30)
  %32 = getelementptr inbounds nuw i8, ptr %2, i64 64
  %33 = load double, ptr %32, align 8, !tbaa !8
  %34 = tail call double @llvm.fmuladd.f64(double %13, double %33, double %31)
  %35 = getelementptr inbounds nuw i8, ptr %1, i64 8
  %36 = load double, ptr %35, align 8, !tbaa !14
  %37 = getelementptr inbounds nuw i8, ptr %1, i64 32
  %38 = load double, ptr %37, align 8, !tbaa !3
  %39 = fmul double %9, %38
  %40 = tail call double @llvm.fmuladd.f64(double %36, double %5, double %39)
  %41 = getelementptr inbounds nuw i8, ptr %1, i64 56
  %42 = load double, ptr %41, align 8, !tbaa !10
  %43 = tail call double @llvm.fmuladd.f64(double %42, double %15, double %40)
  %44 = fmul double %20, %38
  %45 = tail call double @llvm.fmuladd.f64(double %36, double %18, double %44)
  %46 = tail call double @llvm.fmuladd.f64(double %42, double %24, double %45)
  %47 = fmul double %29, %38
  %48 = tail call double @llvm.fmuladd.f64(double %36, double %27, double %47)
  %49 = tail call double @llvm.fmuladd.f64(double %42, double %33, double %48)
  %50 = getelementptr inbounds nuw i8, ptr %1, i64 16
  %51 = load double, ptr %50, align 8, !tbaa !13
  %52 = getelementptr inbounds nuw i8, ptr %1, i64 40
  %53 = load double, ptr %52, align 8, !tbaa !9
  %54 = fmul double %9, %53
  %55 = tail call double @llvm.fmuladd.f64(double %51, double %5, double %54)
  %56 = getelementptr inbounds nuw i8, ptr %1, i64 64
  %57 = load double, ptr %56, align 8, !tbaa !8
  %58 = tail call double @llvm.fmuladd.f64(double %57, double %15, double %55)
  %59 = fmul double %20, %53
  %60 = tail call double @llvm.fmuladd.f64(double %51, double %18, double %59)
  %61 = tail call double @llvm.fmuladd.f64(double %57, double %24, double %60)
  %62 = fmul double %29, %53
  %63 = tail call double @llvm.fmuladd.f64(double %51, double %27, double %62)
  %64 = tail call double @llvm.fmuladd.f64(double %57, double %33, double %63)
  store double %16, ptr %0, align 8, !tbaa !15
  %65 = getelementptr inbounds nuw i8, ptr %0, i64 8
  store double %43, ptr %65, align 8, !tbaa !14
  %66 = getelementptr inbounds nuw i8, ptr %0, i64 16
  store double %58, ptr %66, align 8, !tbaa !13
  %67 = getelementptr inbounds nuw i8, ptr %0, i64 24
  store double %25, ptr %67, align 8, !tbaa !12
  %68 = getelementptr inbounds nuw i8, ptr %0, i64 32
  store double %46, ptr %68, align 8, !tbaa !3
  %69 = getelementptr inbounds nuw i8, ptr %0, i64 40
  store double %61, ptr %69, align 8, !tbaa !9
  %70 = getelementptr inbounds nuw i8, ptr %0, i64 48
  store double %34, ptr %70, align 8, !tbaa !11
  %71 = getelementptr inbounds nuw i8, ptr %0, i64 56
  store double %49, ptr %71, align 8, !tbaa !10
  %72 = getelementptr inbounds nuw i8, ptr %0, i64 64
  store double %64, ptr %72, align 8, !tbaa !8
  ret void
}